; Function Attrs: mustprogress nounwind uwtable
define dso_local i32 @_ZNK5clang13FullSourceLoc9getFileIDEv(ptr nocapture noundef nonnull readonly align 8 dereferenceable(16) %0) local_unnamed_addr #0 align 2 {
  %2 = getelementptr inbounds nuw i8, ptr %0, i64 8
  %3 = load ptr, ptr %2, align 8
  %.sroa.0.0.copyload = load i32, ptr %0, align 8
  %4 = and i32 %.sroa.0.0.copyload, 2147483647
  %5 = getelementptr inbounds nuw i8, ptr %3, i64 408
  %.sroa.0.0.copyload.i.i = load i32, ptr %5, align 8
  %6 = add i32 %.sroa.0.0.copyload.i.i, 1
  %or.cond.i.i.i.i.i = icmp ult i32 %6, 2
  br i1 %or.cond.i.i.i.i.i, label %7, label %10

7:                                                ; preds = %1
  %8 = getelementptr inbounds nuw i8, ptr %3, i64 184
  %9 = load ptr, ptr %8, align 8
  br label %_ZNK5clang13SourceManager12getSLocEntryENS_6FileIDEPb.exit.i.i.i

10:                                               ; preds = %1
  %11 = tail call noundef nonnull align 8 dereferenceable(24) ptr @_ZN5clang13SourceManager16getSLocEntryByIDEiPb(ptr noundef nonnull align 8 dereferenceable(696) %3, i32 noundef %.sroa.0.0.copyload.i.i, ptr noundef null)
  br label %_ZNK5clang13SourceManager12getSLocEntryENS_6FileIDEPb.exit.i.i.i

_ZNK5clang13SourceManager12getSLocEntryENS_6FileIDEPb.exit.i.i.i: ; preds = %10, %7
  %.0.i.i.i.i.i = phi ptr [ %9, %7 ], [ %11, %10 ]
  %12 = load i32, ptr %.0.i.i.i.i.i, align 8
  %13 = and i32 %12, 2147483647
  %14 = icmp ult i32 %4, %13
  br i1 %14, label %_ZNK5clang13SourceManager16isOffsetInFileIDENS_6FileIDEj.exit.thread4.i.i, label %15

15:                                               ; preds = %_ZNK5clang13SourceManager12getSLocEntryENS_6FileIDEPb.exit.i.i.i
  %16 = icmp eq i32 %.sroa.0.0.copyload.i.i, -2
  br i1 %16, label %_ZNK5clang13SourceManager16isOffsetInFileIDENS_6FileIDEj.exit.thread.i.i, label %17

17:                                               ; preds = %15
  %18 = getelementptr inbounds nuw i8, ptr %3, i64 184
  %19 = tail call noundef i64 @_ZNK4llvm15SmallVectorBaseIjE4sizeEv(ptr noundef nonnull align 8 dereferenceable(16) %18) #10
  %20 = trunc i64 %19 to i32
  %21 = icmp eq i32 %6, %20
  br i1 %21, label %22, label %_ZNK5clang13SourceManager16isOffsetInFileIDENS_6FileIDEj.exit.i.i

22:                                               ; preds = %17
  %23 = getelementptr inbounds nuw i8, ptr %3, i64 248
  %24 = load i32, ptr %23, align 8
  %25 = icmp ult i32 %4, %24
  br i1 %25, label %_ZNK5clang13SourceManager16isOffsetInFileIDENS_6FileIDEj.exit.thread.i.i, label %_ZNK5clang13SourceManager16isOffsetInFileIDENS_6FileIDEj.exit.thread4.i.i

_ZNK5clang13SourceManager16isOffsetInFileIDENS_6FileIDEj.exit.i.i: ; preds = %17
  %26 = tail call noundef nonnull align 8 dereferenceable(24) ptr @_ZN5clang13SourceManager16getSLocEntryByIDEiPb(ptr noundef nonnull align 8 dereferenceable(696) %3, i32 noundef %6, ptr noundef null)
  %27 = load i32, ptr %26, align 8
  %28 = and i32 %27, 2147483647
  %29 = icmp ult i32 %4, %28
  br i1 %29, label %_ZNK5clang13SourceManager16isOffsetInFileIDENS_6FileIDEj.exit.thread.i.i, label %_ZNK5clang13SourceManager16isOffsetInFileIDENS_6FileIDEj.exit.thread4.i.i

_ZNK5clang13SourceManager16isOffsetInFileIDENS_6FileIDEj.exit.thread.i.i: ; preds = %_ZNK5clang13SourceManager16isOffsetInFileIDENS_6FileIDEj.exit.i.i, %22, %15
  %.sroa.02.0.copyload.i.i = load i32, ptr %5, align 8
  br label %_ZNK5clang13SourceManager9getFileIDENS_14SourceLocationE.exit

_ZNK5clang13SourceManager16isOffsetInFileIDENS_6FileIDEj.exit.thread4.i.i: ; preds = %_ZNK5clang13SourceManager16isOffsetInFileIDENS_6FileIDEj.exit.i.i, %22, %_ZNK5clang13SourceManager12getSLocEntryENS_6FileIDEPb.exit.i.i.i
  %30 = tail call i32 @_ZNK5clang13SourceManager13getFileIDSlowEj(ptr noundef nonnull align 8 dereferenceable(696) %3, i32 noundef %4) #10
  br label %_ZNK5clang13SourceManager9getFileIDENS_14SourceLocationE.exit

_ZNK5clang13SourceManager9getFileIDENS_14SourceLocationE.exit: ; preds = %_ZNK5clang13SourceManager16isOffsetInFileIDENS_6FileIDEj.exit.thread.i.i, %_ZNK5clang13SourceManager16isOffsetInFileIDENS_6FileIDEj.exit.thread4.i.i
  %.sroa.02.0.i.i = phi i32 [ %.sroa.02.0.copyload.i.i, %_ZNK5clang13SourceManager16isOffsetInFileIDENS_6FileIDEj.exit.thread.i.i ], [ %30, %_ZNK5clang13SourceManager16isOffsetInFileIDENS_6FileIDEj.exit.thread4.i.i ]
  ret i32 %.sroa.02.0.i.i
}